; Function Attrs: mustprogress nofree norecurse nosync nounwind willreturn memory(read, argmem: readwrite, inaccessiblemem: none) uwtable
define noundef signext range(i8 0, 2) i8 @_ZNK6icu_7717CharsetRecog_sjis8nextCharEPNS_12IteratedCharEPNS_9InputTextE(ptr nonnull readnone align 8 captures(none) %0, ptr noundef captures(none) initializes((0, 8), (12, 13)) %1, ptr noundef readonly captures(none) %2) unnamed_addr #1 align 2 {
  %4 = getelementptr inbounds nuw i8, ptr %1, i64 8
  %5 = load i32, ptr %4, align 4, !tbaa !9
  %6 = getelementptr inbounds nuw i8, ptr %1, i64 4
  store i32 %5, ptr %6, align 4, !tbaa !8
  %7 = getelementptr inbounds nuw i8, ptr %1, i64 12
  store i8 0, ptr %7, align 4, !tbaa !10
  %8 = getelementptr inbounds nuw i8, ptr %2, i64 48
  %9 = load i32, ptr %8, align 8, !tbaa !12
  %.not.i = icmp slt i32 %5, %9
  br i1 %.not.i, label %_ZN6icu_7712IteratedChar8nextByteEPNS_9InputTextE.exit, label %_ZN6icu_7712IteratedChar8nextByteEPNS_9InputTextE.exit.thread

_ZN6icu_7712IteratedChar8nextByteEPNS_9InputTextE.exit.thread: ; preds = %3
  %10 = getelementptr inbounds nuw i8, ptr %1, i64 13
  store i8 1, ptr %10, align 1, !tbaa !11
  store i32 -1, ptr %1, align 4, !tbaa !3
  br label %34

_ZN6icu_7712IteratedChar8nextByteEPNS_9InputTextE.exit: ; preds = %3
  %11 = getelementptr inbounds nuw i8, ptr %2, i64 40
  %12 = load ptr, ptr %11, align 8, !tbaa !17
  %13 = add nsw i32 %5, 1
  store i32 %13, ptr %4, align 4, !tbaa !9
  %14 = sext i32 %5 to i64
  %15 = getelementptr inbounds i8, ptr %12, i64 %14
  %16 = load i8, ptr %15, align 1, !tbaa !18
  %17 = zext i8 %16 to i32
  store i32 %17, ptr %1, align 4, !tbaa !3
  %18 = icmp sgt i8 %16, -1
  %19 = add i8 %16, 95
  %or.cond = icmp ult i8 %19, 63
  %or.cond28 = or i1 %18, %or.cond
  br i1 %or.cond28, label %34, label %20

20:                                               ; preds = %_ZN6icu_7712IteratedChar8nextByteEPNS_9InputTextE.exit
  %.not.i30 = icmp slt i32 %13, %9
  br i1 %.not.i30, label %22, label %_ZN6icu_7712IteratedChar8nextByteEPNS_9InputTextE.exit32

_ZN6icu_7712IteratedChar8nextByteEPNS_9InputTextE.exit32: ; preds = %20
  %21 = getelementptr inbounds nuw i8, ptr %1, i64 13
  store i8 1, ptr %21, align 1, !tbaa !11
  br label %30

22:                                               ; preds = %20
  %23 = add nsw i32 %5, 2
  store i32 %23, ptr %4, align 4, !tbaa !9
  %24 = sext i32 %13 to i64
  %25 = getelementptr inbounds i8, ptr %12, i64 %24
  %26 = load i8, ptr %25, align 1, !tbaa !18
  %27 = zext i8 %26 to i32
  %28 = shl nuw nsw i32 %17, 8
  %29 = or disjoint i32 %28, %27
  store i32 %29, ptr %1, align 4, !tbaa !3
  br label %30

30:                                               ; preds = %_ZN6icu_7712IteratedChar8nextByteEPNS_9InputTextE.exit32, %22
  %.0.i3135 = phi i32 [ %27, %22 ], [ -1, %_ZN6icu_7712IteratedChar8nextByteEPNS_9InputTextE.exit32 ]
  %31 = and i32 %.0.i3135, -64
  %or.cond3 = icmp eq i32 %31, 64
  %32 = add nsw i32 %.0.i3135, -128
  %or.cond5 = icmp ult i32 %32, 127
  %or.cond29 = select i1 %or.cond3, i1 true, i1 %or.cond5
  br i1 %or.cond29, label %34, label %33

33:                                               ; preds = %30
  store i8 1, ptr %7, align 4, !tbaa !10
  br label %34

34:                                               ; preds = %_ZN6icu_7712IteratedChar8nextByteEPNS_9InputTextE.exit.thread, %33, %30, %_ZN6icu_7712IteratedChar8nextByteEPNS_9InputTextE.exit
  %.0 = phi i8 [ 1, %_ZN6icu_7712IteratedChar8nextByteEPNS_9InputTextE.exit ], [ 1, %30 ], [ 1, %33 ], [ 0, %_ZN6icu_7712IteratedChar8nextByteEPNS_9InputTextE.exit.thread ]
  ret i8 %.0
}